target datalayout = "e-m:e-p270:32:32-p271:32:32-p272:64:64-i64:64-i128:128-f80:128-n8:16:32:64-S128"
target triple = "x86_64-unknown-linux-gnu"

%class.symbol = type { ptr }
%class.obj_ref = type { ptr, ptr }
%class.obj_ref.0 = type { ptr, ptr }
%"class.recfun::def" = type <{ ptr, %class.symbol, %class.ref_vector.42, %class.obj_ref.47, %class.ref_vector.48, %class.vector.53, %class.obj_ref, %class.obj_ref.0, i32, i8, [3 x i8] }>
%class.ref_vector.42 = type { %class.ref_vector_core.43 }
%class.ref_vector_core.43 = type { %class.ref_manager_wrapper.44, %class.ptr_vector.45 }
%class.ref_manager_wrapper.44 = type { ptr }
%class.ptr_vector.45 = type { %class.vector.46 }
%class.vector.46 = type { ptr }
%class.obj_ref.47 = type { ptr, ptr }
%class.ref_vector.48 = type { %class.ref_vector_core.49 }
%class.ref_vector_core.49 = type { %class.ref_manager_wrapper.50, %class.ptr_vector.51 }
%class.ref_manager_wrapper.50 = type { ptr }
%class.ptr_vector.51 = type { %class.vector.52 }
%class.vector.52 = type { ptr }
%class.vector.53 = type { ptr }
%"class.recfun::promise_def" = type { ptr, ptr }
%"struct.recfun::is_imm_pred" = type { %"struct.recfun::is_immediate_pred", ptr }
%"struct.recfun::is_immediate_pred" = type { ptr }

@_ZTVN6recfun11is_imm_predE = linkonce_odr hidden unnamed_addr constant { [5 x ptr] } { [5 x ptr] [ptr null, ptr @_ZTIN6recfun11is_imm_predE, ptr @_ZN6recfun11is_imm_predclEP4expr, ptr @_ZN6recfun11is_imm_predD2Ev, ptr @_ZN6recfun11is_imm_predD0Ev] }, comdat, align 8
@_ZTVN6recfun17is_immediate_predE = linkonce_odr hidden unnamed_addr constant { [5 x ptr] } { [5 x ptr] [ptr null, ptr @_ZTIN6recfun17is_immediate_predE, ptr @__cxa_pure_virtual, ptr @_ZN6recfun17is_immediate_predD2Ev, ptr @_ZN6recfun17is_immediate_predD0Ev] }, comdat, align 8

; Function Attrs: mustprogress nounwind uwtable
define linkonce_odr hidden void @_ZN6recfun17is_immediate_predD2Ev(ptr noundef nonnull align 8 dereferenceable(8) %this) unnamed_addr #5 comdat align 2 {
entry:
  %this.addr = alloca ptr, align 8
  store ptr %this, ptr %this.addr, align 8
  ret void
}

; Function Attrs: mustprogress nounwind uwtable
define linkonce_odr hidden void @_ZN6recfun17is_immediate_predC2Ev(ptr noundef nonnull align 8 dereferenceable(8) %this) unnamed_addr #5 comdat align 2 {
entry:
  %this.addr = alloca ptr, align 8
  store ptr %this, ptr %this.addr, align 8
  %this1 = load ptr, ptr %this.addr, align 8
  store ptr getelementptr inbounds ({ [5 x ptr] }, ptr @_ZTVN6recfun17is_immediate_predE, i32 0, i32 0, i32 2), ptr %this1, align 8
  ret void
}

; Function Attrs: mustprogress nounwind uwtable
define linkonce_odr hidden void @_ZN6recfun11is_imm_predD2Ev(ptr noundef nonnull align 8 dereferenceable(16) %this) unnamed_addr #5 comdat align 2 {
entry:
  %this.addr = alloca ptr, align 8
  store ptr %this, ptr %this.addr, align 8
  %this1 = load ptr, ptr %this.addr, align 8
  call void @_ZN6recfun17is_immediate_predD2Ev(ptr noundef nonnull align 8 dereferenceable(8) %this1) #3
  ret void
}

; Function Attrs: mustprogress nounwind uwtable
define linkonce_odr hidden void @_ZN6recfun11is_imm_predC2ERNS_4utilE(ptr noundef nonnull align 8 dereferenceable(16) %this, ptr noundef nonnull align 8 dereferenceable(24) %u) unnamed_addr #5 comdat align 2 {
entry:
  %this.addr = alloca ptr, align 8
  %u.addr = alloca ptr, align 8
  store ptr %this, ptr %this.addr, align 8
  store ptr %u, ptr %u.addr, align 8
  %this1 = load ptr, ptr %this.addr, align 8
  call void @_ZN6recfun17is_immediate_predC2Ev(ptr noundef nonnull align 8 dereferenceable(8) %this1) #3
  store ptr getelementptr inbounds ({ [5 x ptr] }, ptr @_ZTVN6recfun11is_imm_predE, i32 0, i32 0, i32 2), ptr %this1, align 8
  %u2 = getelementptr inbounds %"struct.recfun::is_imm_pred", ptr %this1, i32 0, i32 1
  %0 = load ptr, ptr %u.addr, align 8
  store ptr %0, ptr %u2, align 8
  ret void
}

; Function Attrs: mustprogress uwtable
define hidden void @_ZN6recfun11promise_def14set_definitionERNS_7replaceEbjPKP3varP4expr(ptr noundef nonnull align 8 dereferenceable(16) %this, ptr noundef nonnull align 8 dereferenceable(8) %r, i1 noundef zeroext %is_macro, i32 noundef %n_vars, ptr noundef %vars, ptr noundef %rhs) #4 align 2 personality ptr @__gxx_personality_v0 {
entry:
  %this.addr = alloca ptr, align 8
  %r.addr = alloca ptr, align 8
  %is_macro.addr = alloca i8, align 1
  %n_vars.addr = alloca i32, align 4
  %vars.addr = alloca ptr, align 8
  %rhs.addr = alloca ptr, align 8
  %is_i = alloca %"struct.recfun::is_imm_pred", align 8
  %exn.slot = alloca ptr, align 8
  %ehselector.slot = alloca i32, align 4
  store ptr %this, ptr %this.addr, align 8
  store ptr %r, ptr %r.addr, align 8
  %frombool = zext i1 %is_macro to i8
  store i8 %frombool, ptr %is_macro.addr, align 1
  store i32 %n_vars, ptr %n_vars.addr, align 4
  store ptr %vars, ptr %vars.addr, align 8
  store ptr %rhs, ptr %rhs.addr, align 8
  %this1 = load ptr, ptr %this.addr, align 8
  %0 = load i8, ptr %is_macro.addr, align 1
  %tobool = trunc i8 %0 to i1
  %d = getelementptr inbounds %"class.recfun::promise_def", ptr %this1, i32 0, i32 1
  %1 = load ptr, ptr %d, align 8
  %m_is_macro = getelementptr inbounds %"class.recfun::def", ptr %1, i32 0, i32 9
  %frombool2 = zext i1 %tobool to i8
  store i8 %frombool2, ptr %m_is_macro, align 4
  %u = getelementptr inbounds %"class.recfun::promise_def", ptr %this1, i32 0, i32 0
  %2 = load ptr, ptr %u, align 8
  call void @_ZN6recfun11is_imm_predC2ERNS_4utilE(ptr noundef nonnull align 8 dereferenceable(16) %is_i, ptr noundef nonnull align 8 dereferenceable(24) %2)
  %d3 = getelementptr inbounds %"class.recfun::promise_def", ptr %this1, i32 0, i32 1
  %3 = load ptr, ptr %d3, align 8
  %u4 = getelementptr inbounds %"class.recfun::promise_def", ptr %this1, i32 0, i32 0
  %4 = load ptr, ptr %u4, align 8
  %5 = load ptr, ptr %r.addr, align 8
  %6 = load i8, ptr %is_macro.addr, align 1
  %tobool5 = trunc i8 %6 to i1
  %7 = load i32, ptr %n_vars.addr, align 4
  %8 = load ptr, ptr %vars.addr, align 8
  %9 = load ptr, ptr %rhs.addr, align 8
  invoke void @_ZN6recfun3def13compute_casesERNS_4utilERNS_7replaceERNS_17is_immediate_predEbjPKP3varP4expr(ptr noundef nonnull align 8 dereferenceable(109) %3, ptr noundef nonnull align 8 dereferenceable(24) %4, ptr noundef nonnull align 8 dereferenceable(8) %5, ptr noundef nonnull align 8 dereferenceable(8) %is_i, i1 noundef zeroext %tobool5, i32 noundef %7, ptr noundef %8, ptr noundef %9)
          to label %invoke.cont unwind label %lpad

invoke.cont:                                      ; preds = %entry
  call void @_ZN6recfun11is_imm_predD2Ev(ptr noundef nonnull align 8 dereferenceable(16) %is_i) #3
  ret void

lpad:                                             ; preds = %entry
  %10 = landingpad { ptr, i32 }
          cleanup
  %11 = extractvalue { ptr, i32 } %10, 0
  store ptr %11, ptr %exn.slot, align 8
  %12 = extractvalue { ptr, i32 } %10, 1
  store i32 %12, ptr %ehselector.slot, align 4
  call void @_ZN6recfun11is_imm_predD2Ev(ptr noundef nonnull align 8 dereferenceable(16) %is_i) #3
  br label %eh.resume

eh.resume:                                        ; preds = %lpad
  %exn = load ptr, ptr %exn.slot, align 8
  %sel = load i32, ptr %ehselector.slot, align 4
  %lpad.val = insertvalue { ptr, i32 } poison, ptr %exn, 0
  %lpad.val6 = insertvalue { ptr, i32 } %lpad.val, i32 %sel, 1
  resume { ptr, i32 } %lpad.val6
}