; Function Attrs: mustprogress uwtable
define hidden void @_ZN6recfun11promise_def14set_definitionERNS_7replaceEbjPKP3varP4expr(ptr nocapture noundef nonnull readonly align 8 dereferenceable(16) %this, ptr noundef nonnull align 8 dereferenceable(8) %r, i1 noundef zeroext %is_macro, i32 noundef %n_vars, ptr nocapture noundef readonly %vars, ptr noundef %rhs) local_unnamed_addr #3 align 2 personality ptr @__gxx_personality_v0 {
entry:
  %is_i = alloca %"struct.recfun::is_imm_pred", align 8
  %frombool = zext i1 %is_macro to i8
  %d = getelementptr inbounds i8, ptr %this, i64 8
  %0 = load ptr, ptr %d, align 8
  %m_is_macro = getelementptr inbounds i8, ptr %0, i64 108
  store i8 %frombool, ptr %m_is_macro, align 4
  %1 = load ptr, ptr %this, align 8
  store ptr getelementptr inbounds ({ [5 x ptr] }, ptr @_ZTVN6recfun11is_imm_predE, i64 0, i32 0, i64 2), ptr %is_i, align 8
  %u2.i = getelementptr inbounds i8, ptr %is_i, i64 8
  store ptr %1, ptr %u2.i, align 8
  %2 = load ptr, ptr %d, align 8
  call void @_ZN6recfun3def13compute_casesERNS_4utilERNS_7replaceERNS_17is_immediate_predEbjPKP3varP4expr(ptr noundef nonnull align 8 dereferenceable(109) %2, ptr noundef nonnull align 8 dereferenceable(24) %1, ptr noundef nonnull align 8 dereferenceable(8) %r, ptr noundef nonnull align 8 dereferenceable(8) %is_i, i1 noundef zeroext %is_macro, i32 noundef %n_vars, ptr noundef %vars, ptr noundef %rhs)
  ret void
}